; Function Attrs: mustprogress nounwind uwtable
define internal fastcc void @_ZNSt6vectorIN12_GLOBAL__N_19SmtStruct5FieldESaIS2_EED2Ev(ptr noundef nonnull readonly align 8 captures(none) dereferenceable(24) %0) unnamed_addr #6 align 2 personality ptr @__gxx_personality_v0 {
  %2 = load ptr, ptr %0, align 8, !tbaa !216
  %3 = getelementptr inbounds nuw i8, ptr %0, i64 8
  %4 = load ptr, ptr %3, align 8, !tbaa !291
  %.not4.i.i.i = icmp eq ptr %2, %4
  br i1 %.not4.i.i.i, label %_ZSt8_DestroyIPN12_GLOBAL__N_19SmtStruct5FieldES2_EvT_S4_RSaIT0_E.exit, label %.lr.ph.i.i.i

.lr.ph.i.i.i:                                     ; preds = %1, %_ZSt8_DestroyIN12_GLOBAL__N_19SmtStruct5FieldEEvPT_.exit.i.i.i
  %.05.i.i.i = phi ptr [ %14, %_ZSt8_DestroyIN12_GLOBAL__N_19SmtStruct5FieldEEvPT_.exit.i.i.i ], [ %2, %1 ]
  %5 = getelementptr inbounds nuw i8, ptr %.05.i.i.i, i64 16
  %6 = load ptr, ptr %5, align 8, !tbaa !15
  %7 = getelementptr inbounds nuw i8, ptr %.05.i.i.i, i64 32
  %8 = icmp eq ptr %6, %7
  br i1 %8, label %_ZNKSt7__cxx1112basic_stringIcSt11char_traitsIcESaIcEE11_M_is_localEv.exit.thread.i.i.i.i.i.i.i, label %_ZNKSt7__cxx1112basic_stringIcSt11char_traitsIcESaIcEE11_M_is_localEv.exit.i.i.i.i.i.i.i

_ZNKSt7__cxx1112basic_stringIcSt11char_traitsIcESaIcEE11_M_is_localEv.exit.thread.i.i.i.i.i.i.i: ; preds = %.lr.ph.i.i.i
  %9 = getelementptr inbounds nuw i8, ptr %.05.i.i.i, i64 24
  %10 = load i64, ptr %9, align 8, !tbaa !20
  %11 = icmp ult i64 %10, 16
  tail call void @llvm.assume(i1 %11)
  br label %_ZSt8_DestroyIN12_GLOBAL__N_19SmtStruct5FieldEEvPT_.exit.i.i.i

_ZNKSt7__cxx1112basic_stringIcSt11char_traitsIcESaIcEE11_M_is_localEv.exit.i.i.i.i.i.i.i: ; preds = %.lr.ph.i.i.i
  %12 = load i64, ptr %7, align 8, !tbaa !21
  %13 = add i64 %12, 1
  tail call void @_ZdlPvm(ptr noundef %6, i64 noundef %13) #27
  br label %_ZSt8_DestroyIN12_GLOBAL__N_19SmtStruct5FieldEEvPT_.exit.i.i.i

_ZSt8_DestroyIN12_GLOBAL__N_19SmtStruct5FieldEEvPT_.exit.i.i.i: ; preds = %_ZNKSt7__cxx1112basic_stringIcSt11char_traitsIcESaIcEE11_M_is_localEv.exit.i.i.i.i.i.i.i, %_ZNKSt7__cxx1112basic_stringIcSt11char_traitsIcESaIcEE11_M_is_localEv.exit.thread.i.i.i.i.i.i.i
  %14 = getelementptr inbounds nuw i8, ptr %.05.i.i.i, i64 48
  %.not.i.i.i = icmp eq ptr %14, %4
  br i1 %.not.i.i.i, label %_ZSt8_DestroyIPN12_GLOBAL__N_19SmtStruct5FieldES2_EvT_S4_RSaIT0_E.exitthread-pre-split, label %.lr.ph.i.i.i, !llvm.loop !306

_ZSt8_DestroyIPN12_GLOBAL__N_19SmtStruct5FieldES2_EvT_S4_RSaIT0_E.exitthread-pre-split: ; preds = %_ZSt8_DestroyIN12_GLOBAL__N_19SmtStruct5FieldEEvPT_.exit.i.i.i
  %.val.pr = load ptr, ptr %0, align 8, !tbaa !216
  br label %_ZSt8_DestroyIPN12_GLOBAL__N_19SmtStruct5FieldES2_EvT_S4_RSaIT0_E.exit

_ZSt8_DestroyIPN12_GLOBAL__N_19SmtStruct5FieldES2_EvT_S4_RSaIT0_E.exit: ; preds = %_ZSt8_DestroyIPN12_GLOBAL__N_19SmtStruct5FieldES2_EvT_S4_RSaIT0_E.exitthread-pre-split, %1
  %.val = phi ptr [ %.val.pr, %_ZSt8_DestroyIPN12_GLOBAL__N_19SmtStruct5FieldES2_EvT_S4_RSaIT0_E.exitthread-pre-split ], [ %2, %1 ]
  %.not.i.i = icmp eq ptr %.val, null
  br i1 %.not.i.i, label %_ZNSt12_Vector_baseIN12_GLOBAL__N_19SmtStruct5FieldESaIS2_EED2Ev.exit, label %15

15:                                               ; preds = %_ZSt8_DestroyIPN12_GLOBAL__N_19SmtStruct5FieldES2_EvT_S4_RSaIT0_E.exit
  %16 = getelementptr inbounds nuw i8, ptr %0, i64 16
  %.val1 = load ptr, ptr %16, align 8, !tbaa !292
  %17 = ptrtoint ptr %.val1 to i64
  %18 = ptrtoint ptr %.val to i64
  %19 = sub i64 %17, %18
  tail call void @_ZdlPvm(ptr noundef nonnull %.val, i64 noundef %19) #27
  br label %_ZNSt12_Vector_baseIN12_GLOBAL__N_19SmtStruct5FieldESaIS2_EED2Ev.exit

_ZNSt12_Vector_baseIN12_GLOBAL__N_19SmtStruct5FieldESaIS2_EED2Ev.exit: ; preds = %_ZSt8_DestroyIPN12_GLOBAL__N_19SmtStruct5FieldES2_EvT_S4_RSaIT0_E.exit, %15
  ret void
}